
test:     file format elf32-littleriscv


Disassembly of section .plt:

00010290 <_PROCEDURE_LINKAGE_TABLE_>:
   10290:	97 23 00 00 33 03 c3 41 03 ae 03 d7 13 03 43 fd     .#..3..A......C.
   102a0:	93 82 03 d7 13 53 23 00 83 a2 42 00 67 00 0e 00     .....S#...B.g...

000102b0 <__libc_start_main@plt>:
   102b0:	00002e17          	auipc	t3,0x2
   102b4:	d58e2e03          	lw	t3,-680(t3) # 12008 <__libc_start_main@GLIBC_2.34>
   102b8:	000e0367          	jalr	t1,t3
   102bc:	00000013          	nop

Disassembly of section .text:

000102c0 <_start>:
   102c0:	2839                	jal	102de <load_gp>
   102c2:	87aa                	mv	a5,a0
   102c4:	00000517          	auipc	a0,0x0
   102c8:	19050513          	add	a0,a0,400 # 10454 <main>
   102cc:	4582                	lw	a1,0(sp)
   102ce:	0050                	add	a2,sp,4
   102d0:	ff017113          	and	sp,sp,-16
   102d4:	4681                	li	a3,0
   102d6:	4701                	li	a4,0
   102d8:	880a                	mv	a6,sp
   102da:	3fd9                	jal	102b0 <__libc_start_main@plt>
   102dc:	9002                	ebreak

000102de <load_gp>:
   102de:	00002197          	auipc	gp,0x2
   102e2:	52218193          	add	gp,gp,1314 # 12800 <__global_pointer$>
   102e6:	8082                	ret
	...

000102ea <deregister_tm_clones>:
   102ea:	6549                	lui	a0,0x12
   102ec:	6749                	lui	a4,0x12
   102ee:	00050793          	mv	a5,a0
   102f2:	00070713          	mv	a4,a4
   102f6:	00f70863          	beq	a4,a5,10306 <deregister_tm_clones+0x1c>
   102fa:	00000793          	li	a5,0
   102fe:	c781                	beqz	a5,10306 <deregister_tm_clones+0x1c>
   10300:	00050513          	mv	a0,a0
   10304:	8782                	jr	a5
   10306:	8082                	ret

00010308 <register_tm_clones>:
   10308:	6549                	lui	a0,0x12
   1030a:	00050793          	mv	a5,a0
   1030e:	6749                	lui	a4,0x12
   10310:	00070593          	mv	a1,a4
   10314:	8d9d                	sub	a1,a1,a5
   10316:	4025d793          	sra	a5,a1,0x2
   1031a:	81fd                	srl	a1,a1,0x1f
   1031c:	95be                	add	a1,a1,a5
   1031e:	8585                	sra	a1,a1,0x1
   10320:	c599                	beqz	a1,1032e <register_tm_clones+0x26>
   10322:	00000793          	li	a5,0
   10326:	c781                	beqz	a5,1032e <register_tm_clones+0x26>
   10328:	00050513          	mv	a0,a0
   1032c:	8782                	jr	a5
   1032e:	8082                	ret

00010330 <__do_global_dtors_aux>:
   10330:	1141                	add	sp,sp,-16
   10332:	c422                	sw	s0,8(sp)
   10334:	8141c783          	lbu	a5,-2028(gp) # 12014 <completed.0>
   10338:	c606                	sw	ra,12(sp)
   1033a:	e789                	bnez	a5,10344 <__do_global_dtors_aux+0x14>
   1033c:	377d                	jal	102ea <deregister_tm_clones>
   1033e:	4785                	li	a5,1
   10340:	80f18a23          	sb	a5,-2028(gp) # 12014 <completed.0>
   10344:	40b2                	lw	ra,12(sp)
   10346:	4422                	lw	s0,8(sp)
   10348:	0141                	add	sp,sp,16
   1034a:	8082                	ret

0001034c <frame_dummy>:
   1034c:	bf75                	j	10308 <register_tm_clones>
	...

00010350 <bubble_sort>:
   10350:	fd010113          	add	sp,sp,-48
   10354:	02812623          	sw	s0,44(sp)
   10358:	03010413          	add	s0,sp,48
   1035c:	fca42e23          	sw	a0,-36(s0)
   10360:	fcb42c23          	sw	a1,-40(s0)
   10364:	fe042623          	sw	zero,-20(s0)
   10368:	0cc0006f          	j	10434 <bubble_sort+0xe4>
   1036c:	fe042423          	sw	zero,-24(s0)
   10370:	0a00006f          	j	10410 <bubble_sort+0xc0>
   10374:	fe842783          	lw	a5,-24(s0)
   10378:	00279793          	sll	a5,a5,0x2
   1037c:	fdc42703          	lw	a4,-36(s0)
   10380:	00f707b3          	add	a5,a4,a5
   10384:	0007a703          	lw	a4,0(a5)
   10388:	fe842783          	lw	a5,-24(s0)
   1038c:	00178793          	add	a5,a5,1
   10390:	00279793          	sll	a5,a5,0x2
   10394:	fdc42683          	lw	a3,-36(s0)
   10398:	00f687b3          	add	a5,a3,a5
   1039c:	0007a783          	lw	a5,0(a5)
   103a0:	06e7d263          	bge	a5,a4,10404 <bubble_sort+0xb4>
   103a4:	fe842783          	lw	a5,-24(s0)
   103a8:	00178793          	add	a5,a5,1
   103ac:	00279793          	sll	a5,a5,0x2
   103b0:	fdc42703          	lw	a4,-36(s0)
   103b4:	00f707b3          	add	a5,a4,a5
   103b8:	0007a783          	lw	a5,0(a5)
   103bc:	fef42223          	sw	a5,-28(s0)
   103c0:	fe842783          	lw	a5,-24(s0)
   103c4:	00279793          	sll	a5,a5,0x2
   103c8:	fdc42703          	lw	a4,-36(s0)
   103cc:	00f70733          	add	a4,a4,a5
   103d0:	fe842783          	lw	a5,-24(s0)
   103d4:	00178793          	add	a5,a5,1
   103d8:	00279793          	sll	a5,a5,0x2
   103dc:	fdc42683          	lw	a3,-36(s0)
   103e0:	00f687b3          	add	a5,a3,a5
   103e4:	00072703          	lw	a4,0(a4) # 12000 <__TMC_END__>
   103e8:	00e7a023          	sw	a4,0(a5)
   103ec:	fe842783          	lw	a5,-24(s0)
   103f0:	00279793          	sll	a5,a5,0x2
   103f4:	fdc42703          	lw	a4,-36(s0)
   103f8:	00f707b3          	add	a5,a4,a5
   103fc:	fe442703          	lw	a4,-28(s0)
   10400:	00e7a023          	sw	a4,0(a5)
   10404:	fe842783          	lw	a5,-24(s0)
   10408:	00178793          	add	a5,a5,1
   1040c:	fef42423          	sw	a5,-24(s0)
   10410:	fd842703          	lw	a4,-40(s0)
   10414:	fec42783          	lw	a5,-20(s0)
   10418:	40f707b3          	sub	a5,a4,a5
   1041c:	fff78793          	add	a5,a5,-1
   10420:	fe842703          	lw	a4,-24(s0)
   10424:	f4f748e3          	blt	a4,a5,10374 <bubble_sort+0x24>
   10428:	fec42783          	lw	a5,-20(s0)
   1042c:	00178793          	add	a5,a5,1
   10430:	fef42623          	sw	a5,-20(s0)
   10434:	fec42703          	lw	a4,-20(s0)
   10438:	fd842783          	lw	a5,-40(s0)
   1043c:	f2f748e3          	blt	a4,a5,1036c <bubble_sort+0x1c>
   10440:	00000013          	nop
   10444:	00000013          	nop
   10448:	02c12403          	lw	s0,44(sp)
   1044c:	03010113          	add	sp,sp,48
   10450:	00008067          	ret

00010454 <main>:
   10454:	fc010113          	add	sp,sp,-64
   10458:	02112e23          	sw	ra,60(sp)
   1045c:	02812c23          	sw	s0,56(sp)
   10460:	04010413          	add	s0,sp,64
   10464:	000107b7          	lui	a5,0x10
   10468:	4e878793          	add	a5,a5,1256 # 104e8 <_IO_stdin_used+0x4>
   1046c:	0007ae03          	lw	t3,0(a5)
   10470:	0047a303          	lw	t1,4(a5)
   10474:	0087a883          	lw	a7,8(a5)
   10478:	00c7a803          	lw	a6,12(a5)
   1047c:	0107a503          	lw	a0,16(a5)
   10480:	0147a583          	lw	a1,20(a5)
   10484:	0187a603          	lw	a2,24(a5)
   10488:	01c7a683          	lw	a3,28(a5)
   1048c:	0207a703          	lw	a4,32(a5)
   10490:	0247a783          	lw	a5,36(a5)
   10494:	fdc42423          	sw	t3,-56(s0)
   10498:	fc642623          	sw	t1,-52(s0)
   1049c:	fd142823          	sw	a7,-48(s0)
   104a0:	fd042a23          	sw	a6,-44(s0)
   104a4:	fca42c23          	sw	a0,-40(s0)
   104a8:	fcb42e23          	sw	a1,-36(s0)
   104ac:	fec42023          	sw	a2,-32(s0)
   104b0:	fed42223          	sw	a3,-28(s0)
   104b4:	fee42423          	sw	a4,-24(s0)
   104b8:	fef42623          	sw	a5,-20(s0)
   104bc:	fc840793          	add	a5,s0,-56
   104c0:	00a00593          	li	a1,10
   104c4:	00078513          	mv	a0,a5
   104c8:	e89ff0ef          	jal	10350 <bubble_sort>
   104cc:	00000793          	li	a5,0
   104d0:	00078513          	mv	a0,a5
   104d4:	03c12083          	lw	ra,60(sp)
   104d8:	03812403          	lw	s0,56(sp)
   104dc:	04010113          	add	sp,sp,64
   104e0:	00008067          	ret
